target datalayout = "e-m:e-p270:32:32-p271:32:32-p272:64:64-i64:64-i128:128-f80:128-n8:16:32:64-S128"
target triple = "x86_64-pc-linux-gnu"

%struct.expert_field = type { i32, i32 }
%struct._packet_info = type { ptr, ptr, i32, i32, %struct.nstime_t, %struct.nstime_t, %struct.nstime_t, i32, ptr, ptr, ptr, ptr, %struct._address, %struct._address, %struct._address, %struct._address, %struct._address, %struct._address, i32, ptr, i32, %struct.anon, i32, i32, i32, i32, ptr, i32, ptr, ptr, i16, i16, i32, i32, i16, i32, i32, ptr, ptr, ptr, i8, i8, i16, i16, i16, i32, i16, i16, ptr, ptr, ptr, ptr, ptr, i32 }
%struct.nstime_t = type { i64, i32 }
%struct._address = type { i32, i32, ptr, ptr }
%struct.anon = type { i8, [3 x i8] }

@hf_gdsdb_attach_database_object_id = internal global i32 0, align 4
@hf_gdsdb_attach_database_path = internal global i32 0, align 4
@hf_gdsdb_attach_database_param_buf = internal global i32 0, align 4
@ei_gdsdb_invalid_length = internal global %struct.expert_field zeroinitializer, align 4
@.str.280 = private unnamed_addr constant [5 x i8] c": %s\00", align 1
@.str.281 = private unnamed_addr constant [19 x i8] c"Invalid length: %d\00", align 1

; Function Attrs: nounwind uwtable
define internal i32 @add_uint_string(ptr noundef %0, i32 noundef %1, ptr noundef %2, i32 noundef %3) #0 {
  %5 = alloca i32, align 4
  %6 = alloca ptr, align 8
  %7 = alloca i32, align 4
  %8 = alloca ptr, align 8
  %9 = alloca i32, align 4
  %10 = alloca ptr, align 8
  %11 = alloca i32, align 4
  %12 = alloca i32, align 4
  store ptr %0, ptr %6, align 8
  store i32 %1, ptr %7, align 4
  store ptr %2, ptr %8, align 8
  store i32 %3, ptr %9, align 4
  %13 = load ptr, ptr %6, align 8
  %14 = load i32, ptr %7, align 4
  %15 = load ptr, ptr %8, align 8
  %16 = load i32, ptr %9, align 4
  %17 = call ptr @proto_tree_add_item(ptr noundef %13, i32 noundef %14, ptr noundef %15, i32 noundef %16, i32 noundef 4, i32 noundef 0)
  store ptr %17, ptr %10, align 8
  %18 = load ptr, ptr %8, align 8
  %19 = load i32, ptr %9, align 4
  %20 = call i32 @tvb_get_ntohl(ptr noundef %18, i32 noundef %19)
  %21 = call i32 @dword_align(i32 noundef %20)
  %22 = add i32 %21, 4
  store i32 %22, ptr %11, align 4
  %23 = load ptr, ptr %10, align 8
  %24 = load i32, ptr %11, align 4
  call void @proto_item_set_len(ptr noundef %23, i32 noundef %24)
  %25 = load i32, ptr %9, align 4
  %26 = load i32, ptr %11, align 4
  %27 = add i32 %25, %26
  store i32 %27, ptr %12, align 4
  %28 = load i32, ptr %11, align 4
  %29 = icmp slt i32 %28, 4
  br i1 %29, label %34, label %30

30:                                               ; preds = %4
  %31 = load i32, ptr %12, align 4
  %32 = load i32, ptr %9, align 4
  %33 = icmp slt i32 %31, %32
  br i1 %33, label %34, label %40

34:                                               ; preds = %30, %4
  %35 = load ptr, ptr %10, align 8
  %36 = load i32, ptr %11, align 4
  %37 = call ptr (ptr, ptr, ptr, ptr, ...) @expert_add_info_format(ptr noundef null, ptr noundef %35, ptr noundef @ei_gdsdb_invalid_length, ptr noundef @.str.281, i32 noundef %36)
  %38 = load ptr, ptr %8, align 8
  %39 = call i32 @tvb_reported_length(ptr noundef %38)
  store i32 %39, ptr %5, align 4
  br label %42

40:                                               ; preds = %30
  %41 = load i32, ptr %12, align 4
  store i32 %41, ptr %5, align 4
  br label %42

42:                                               ; preds = %40, %34
  %43 = load i32, ptr %5, align 4
  ret i32 %43
}

; Function Attrs: nounwind uwtable
define internal i32 @dword_align(i32 noundef %0) #0 {
  %2 = alloca i32, align 4
  store i32 %0, ptr %2, align 4
  %3 = load i32, ptr %2, align 4
  %4 = load i32, ptr %2, align 4
  %5 = and i32 %4, 3
  %6 = sub i32 4, %5
  %7 = add i32 %3, %6
  ret i32 %7
}

; Function Attrs: nounwind uwtable
define internal i32 @gdsdb_attach(ptr noundef %0, ptr noundef %1, ptr noundef %2, i32 noundef %3) #0 {
  %5 = alloca i32, align 4
  %6 = alloca ptr, align 8
  %7 = alloca ptr, align 8
  %8 = alloca ptr, align 8
  %9 = alloca i32, align 4
  %10 = alloca i32, align 4
  %11 = alloca i32, align 4
  %12 = alloca i32, align 4
  store ptr %0, ptr %6, align 8
  store ptr %1, ptr %7, align 8
  store ptr %2, ptr %8, align 8
  store i32 %3, ptr %9, align 4
  store i32 12, ptr %10, align 4
  %13 = load ptr, ptr %6, align 8
  %14 = load i32, ptr %9, align 4
  %15 = call i32 @tvb_reported_length_remaining(ptr noundef %13, i32 noundef %14)
  store i32 %15, ptr %12, align 4
  %16 = load i32, ptr %12, align 4
  %17 = load i32, ptr %10, align 4
  %18 = icmp slt i32 %16, %17
  br i1 %18, label %19, label %20

19:                                               ; preds = %4
  store i32 -1, ptr %5, align 4
  br label %80

20:                                               ; preds = %4
  %21 = load ptr, ptr %6, align 8
  %22 = load i32, ptr %9, align 4
  %23 = add i32 %22, 4
  %24 = call i32 @tvb_get_ntohl(ptr noundef %21, i32 noundef %23)
  store i32 %24, ptr %11, align 4
  %25 = load i32, ptr %11, align 4
  %26 = call i32 @dword_align(i32 noundef %25)
  %27 = load i32, ptr %10, align 4
  %28 = add i32 %27, %26
  store i32 %28, ptr %10, align 4
  %29 = load i32, ptr %12, align 4
  %30 = load i32, ptr %10, align 4
  %31 = icmp slt i32 %29, %30
  br i1 %31, label %32, label %33

32:                                               ; preds = %20
  store i32 -1, ptr %5, align 4
  br label %80

33:                                               ; preds = %20
  %34 = load ptr, ptr %6, align 8
  %35 = load i32, ptr %9, align 4
  %36 = load i32, ptr %10, align 4
  %37 = add i32 %35, %36
  %38 = sub i32 %37, 4
  %39 = call i32 @tvb_get_ntohl(ptr noundef %34, i32 noundef %38)
  store i32 %39, ptr %11, align 4
  %40 = load i32, ptr %11, align 4
  %41 = call i32 @dword_align(i32 noundef %40)
  %42 = load i32, ptr %10, align 4
  %43 = add i32 %42, %41
  store i32 %43, ptr %10, align 4
  %44 = load i32, ptr %12, align 4
  %45 = load i32, ptr %10, align 4
  %46 = icmp slt i32 %44, %45
  br i1 %46, label %47, label %48

47:                                               ; preds = %33
  store i32 -1, ptr %5, align 4
  br label %80

48:                                               ; preds = %33
  %49 = load ptr, ptr %8, align 8
  %50 = load i32, ptr @hf_gdsdb_attach_database_object_id, align 4
  %51 = load ptr, ptr %6, align 8
  %52 = load i32, ptr %9, align 4
  %53 = call ptr @proto_tree_add_item(ptr noundef %49, i32 noundef %50, ptr noundef %51, i32 noundef %52, i32 noundef 4, i32 noundef 0)
  %54 = load i32, ptr %9, align 4
  %55 = add i32 %54, 4
  store i32 %55, ptr %9, align 4
  %56 = load ptr, ptr %7, align 8
  %57 = getelementptr inbounds %struct._packet_info, ptr %56, i32 0, i32 1
  %58 = load ptr, ptr %57, align 8
  %59 = load ptr, ptr %7, align 8
  %60 = getelementptr inbounds %struct._packet_info, ptr %59, i32 0, i32 50
  %61 = load ptr, ptr %60, align 8
  %62 = load ptr, ptr %6, align 8
  %63 = load i32, ptr %9, align 4
  %64 = add i32 %63, 4
  %65 = load ptr, ptr %6, align 8
  %66 = load i32, ptr %9, align 4
  %67 = call i32 @tvb_get_ntohl(ptr noundef %65, i32 noundef %66)
  %68 = call ptr @tvb_format_text(ptr noundef %61, ptr noundef %62, i32 noundef %64, i32 noundef %67)
  call void (ptr, i32, ptr, ...) @col_append_fstr(ptr noundef %58, i32 noundef 25, ptr noundef @.str.280, ptr noundef %68)
  %69 = load ptr, ptr %8, align 8
  %70 = load i32, ptr @hf_gdsdb_attach_database_path, align 4
  %71 = load ptr, ptr %6, align 8
  %72 = load i32, ptr %9, align 4
  %73 = call i32 @add_uint_string(ptr noundef %69, i32 noundef %70, ptr noundef %71, i32 noundef %72)
  store i32 %73, ptr %9, align 4
  %74 = load ptr, ptr %8, align 8
  %75 = load i32, ptr @hf_gdsdb_attach_database_param_buf, align 4
  %76 = load ptr, ptr %6, align 8
  %77 = load i32, ptr %9, align 4
  %78 = call i32 @add_uint_string(ptr noundef %74, i32 noundef %75, ptr noundef %76, i32 noundef %77)
  store i32 %78, ptr %9, align 4
  %79 = load i32, ptr %9, align 4
  store i32 %79, ptr %5, align 4
  br label %80

80:                                               ; preds = %48, %47, %32, %19
  %81 = load i32, ptr %5, align 4
  ret i32 %81
}