; Function Attrs: nounwind uwtable
define internal i32 @gdsdb_attach(ptr noundef %0, ptr noundef readonly captures(none) %1, ptr noundef %2, i32 noundef %3) #0 {
  %5 = tail call i32 @tvb_reported_length_remaining(ptr noundef %0, i32 noundef %3) #3
  %6 = icmp slt i32 %5, 12
  br i1 %6, label %add_uint_string.exit40, label %7

7:                                                ; preds = %4
  %8 = add i32 %3, 4
  %9 = tail call i32 @tvb_get_ntohl(ptr noundef %0, i32 noundef %8) #3
  %reass.sub.i = and i32 %9, -4
  %10 = add i32 %reass.sub.i, 16
  %11 = icmp slt i32 %5, %10
  br i1 %11, label %add_uint_string.exit40, label %12

12:                                               ; preds = %7
  %13 = add i32 %3, -4
  %14 = add i32 %13, %10
  %15 = tail call i32 @tvb_get_ntohl(ptr noundef %0, i32 noundef %14) #3
  %reass.sub.i36 = and i32 %15, -4
  %16 = add i32 %reass.sub.i, 20
  %17 = add i32 %16, %reass.sub.i36
  %18 = icmp slt i32 %5, %17
  br i1 %18, label %add_uint_string.exit40, label %19

19:                                               ; preds = %12
  %20 = load i32, ptr @hf_gdsdb_attach_database_object_id, align 4
  %21 = tail call ptr @proto_tree_add_item(ptr noundef %2, i32 noundef %20, ptr noundef %0, i32 noundef %3, i32 noundef 4, i32 noundef 0) #3
  %22 = getelementptr inbounds nuw i8, ptr %1, i64 8
  %23 = load ptr, ptr %22, align 8
  %24 = getelementptr inbounds nuw i8, ptr %1, i64 408
  %25 = load ptr, ptr %24, align 8
  %26 = add i32 %3, 8
  %27 = tail call i32 @tvb_get_ntohl(ptr noundef %0, i32 noundef %8) #3
  %28 = tail call ptr @tvb_format_text(ptr noundef %25, ptr noundef %0, i32 noundef %26, i32 noundef %27) #3
  tail call void (ptr, i32, ptr, ...) @col_append_fstr(ptr noundef %23, i32 noundef 25, ptr noundef nonnull @.str.280, ptr noundef %28) #3
  %29 = load i32, ptr @hf_gdsdb_attach_database_path, align 4
  %30 = tail call ptr @proto_tree_add_item(ptr noundef %2, i32 noundef %29, ptr noundef %0, i32 noundef %8, i32 noundef 4, i32 noundef 0) #3
  %31 = tail call i32 @tvb_get_ntohl(ptr noundef %0, i32 noundef %8) #3
  %reass.sub.i.i = and i32 %31, -4
  %32 = add i32 %reass.sub.i.i, 8
  tail call void @proto_item_set_len(ptr noundef %30, i32 noundef %32) #3
  %33 = add i32 %32, %8
  %34 = add i32 %31, -2147483640
  %35 = icmp ult i32 %34, -2147483644
  %36 = icmp slt i32 %33, %8
  %or.cond.i = or i1 %35, %36
  br i1 %or.cond.i, label %37, label %add_uint_string.exit

37:                                               ; preds = %19
  %38 = tail call ptr (ptr, ptr, ptr, ptr, ...) @expert_add_info_format(ptr noundef null, ptr noundef %30, ptr noundef nonnull @ei_gdsdb_invalid_length, ptr noundef nonnull @.str.281, i32 noundef %32) #3
  %39 = tail call i32 @tvb_reported_length(ptr noundef %0) #3
  br label %add_uint_string.exit

add_uint_string.exit:                             ; preds = %19, %37
  %.0.i = phi i32 [ %39, %37 ], [ %33, %19 ]
  %40 = load i32, ptr @hf_gdsdb_attach_database_param_buf, align 4
  %41 = tail call ptr @proto_tree_add_item(ptr noundef %2, i32 noundef %40, ptr noundef %0, i32 noundef %.0.i, i32 noundef 4, i32 noundef 0) #3
  %42 = tail call i32 @tvb_get_ntohl(ptr noundef %0, i32 noundef %.0.i) #3
  %reass.sub.i.i37 = and i32 %42, -4
  %43 = add i32 %reass.sub.i.i37, 8
  tail call void @proto_item_set_len(ptr noundef %41, i32 noundef %43) #3
  %44 = add i32 %43, %.0.i
  %45 = add i32 %42, -2147483640
  %46 = icmp ult i32 %45, -2147483644
  %47 = icmp slt i32 %44, %.0.i
  %or.cond.i38 = or i1 %46, %47
  br i1 %or.cond.i38, label %48, label %add_uint_string.exit40

48:                                               ; preds = %add_uint_string.exit
  %49 = tail call ptr (ptr, ptr, ptr, ptr, ...) @expert_add_info_format(ptr noundef null, ptr noundef %41, ptr noundef nonnull @ei_gdsdb_invalid_length, ptr noundef nonnull @.str.281, i32 noundef %43) #3
  %50 = tail call i32 @tvb_reported_length(ptr noundef %0) #3
  br label %add_uint_string.exit40

add_uint_string.exit40:                           ; preds = %48, %add_uint_string.exit, %12, %7, %4
  %.0 = phi i32 [ -1, %4 ], [ -1, %7 ], [ -1, %12 ], [ %50, %48 ], [ %44, %add_uint_string.exit ]
  ret i32 %.0
}